; Function Attrs: mustprogress uwtable
define hidden noundef ptr @_Z16mk_solver2tacticP6solver(ptr noundef %s) local_unnamed_addr #3 personality ptr @__gxx_personality_v0 {
entry:
  %call = tail call noalias noundef ptr @_ZN6memory8allocateEm(i64 noundef 56)
  %m_ref_count.i.i = getelementptr inbounds i8, ptr %call, i64 8
  store i32 0, ptr %m_ref_count.i.i, align 8
  store ptr getelementptr inbounds ({ [25 x ptr] }, ptr @_ZTV13solver2tactic, i64 0, i32 0, i64 2), ptr %call, align 8
  %vtable.i = load ptr, ptr %s, align 8
  %vfn.i = getelementptr inbounds i8, ptr %vtable.i, i64 72
  %0 = load ptr, ptr %vfn.i, align 8
  %call.i = tail call noundef nonnull align 8 dereferenceable(976) ptr %0(ptr noundef nonnull align 8 dereferenceable(72) %s)
  %m.i = getelementptr inbounds i8, ptr %call, i64 16
  store ptr %call.i, ptr %m.i, align 8
  %m_solver.i = getelementptr inbounds i8, ptr %call, i64 24
  store ptr %s, ptr %m_solver.i, align 8
  %m_ref_count.i.i.i.i = getelementptr inbounds i8, ptr %s, i64 48
  %1 = load i32, ptr %m_ref_count.i.i.i.i, align 8
  %inc.i.i.i.i = add i32 %1, 1
  store i32 %inc.i.i.i.i, ptr %m_ref_count.i.i.i.i, align 8
  %m_params.i = getelementptr inbounds i8, ptr %call, i64 32
  tail call void @llvm.memset.p0.i64(ptr noundef nonnull align 8 dereferenceable(24) %m_params.i, i8 0, i64 24, i1 false)
  ret ptr %call
}